target datalayout = "e-m:e-p270:32:32-p271:32:32-p272:64:64-i64:64-i128:128-f80:128-n8:16:32:64-S128"
target triple = "x86_64-unknown-linux-gnu"

%struct.asn1_string_st = type { i32, i32, ptr, i64 }

@tag2nbyte = internal constant [31 x i8] c"\FF\FF\FF\FF\FF\FF\FF\FF\FF\FF\FF\FF\00\FF\FF\FF\FF\FF\FF\01\01\FF\01\01\01\FF\01\FF\04\FF\02", align 16

; Function Attrs: nounwind uwtable
define hidden i32 @ASN1_STRING_to_UTF8(ptr noundef %out, ptr noundef %in) #0 {
entry:
  %retval = alloca i32, align 4
  %out.addr = alloca ptr, align 8
  %in.addr = alloca ptr, align 8
  %stmp = alloca %struct.asn1_string_st, align 8
  %str = alloca ptr, align 8
  %mbflag = alloca i32, align 4
  %type = alloca i32, align 4
  %ret = alloca i32, align 4
  store ptr %out, ptr %out.addr, align 8
  store ptr %in, ptr %in.addr, align 8
  store ptr %stmp, ptr %str, align 8
  %0 = load ptr, ptr %in.addr, align 8
  %tobool = icmp ne ptr %0, null
  br i1 %tobool, label %if.end, label %if.then

if.then:                                          ; preds = %entry
  store i32 -1, ptr %retval, align 4
  br label %return

if.end:                                           ; preds = %entry
  %1 = load ptr, ptr %in.addr, align 8
  %type1 = getelementptr inbounds %struct.asn1_string_st, ptr %1, i32 0, i32 1
  %2 = load i32, ptr %type1, align 4
  store i32 %2, ptr %type, align 4
  %3 = load i32, ptr %type, align 4
  %cmp = icmp slt i32 %3, 0
  br i1 %cmp, label %if.then3, label %lor.lhs.false

lor.lhs.false:                                    ; preds = %if.end
  %4 = load i32, ptr %type, align 4
  %cmp2 = icmp sgt i32 %4, 30
  br i1 %cmp2, label %if.then3, label %if.end4

if.then3:                                         ; preds = %lor.lhs.false, %if.end
  store i32 -1, ptr %retval, align 4
  br label %return

if.end4:                                          ; preds = %lor.lhs.false
  %5 = load i32, ptr %type, align 4
  %idxprom = sext i32 %5 to i64
  %arrayidx = getelementptr inbounds [31 x i8], ptr @tag2nbyte, i64 0, i64 %idxprom
  %6 = load i8, ptr %arrayidx, align 1
  %conv = sext i8 %6 to i32
  store i32 %conv, ptr %mbflag, align 4
  %7 = load i32, ptr %mbflag, align 4
  %cmp5 = icmp eq i32 %7, -1
  br i1 %cmp5, label %if.then7, label %if.end8

if.then7:                                         ; preds = %if.end4
  store i32 -1, ptr %retval, align 4
  br label %return

if.end8:                                          ; preds = %if.end4
  %8 = load i32, ptr %mbflag, align 4
  %or = or i32 %8, 4096
  store i32 %or, ptr %mbflag, align 4
  %data = getelementptr inbounds %struct.asn1_string_st, ptr %stmp, i32 0, i32 2
  store ptr null, ptr %data, align 8
  %length = getelementptr inbounds %struct.asn1_string_st, ptr %stmp, i32 0, i32 0
  store i32 0, ptr %length, align 8
  %flags = getelementptr inbounds %struct.asn1_string_st, ptr %stmp, i32 0, i32 3
  store i64 0, ptr %flags, align 8
  %9 = load ptr, ptr %in.addr, align 8
  %data9 = getelementptr inbounds %struct.asn1_string_st, ptr %9, i32 0, i32 2
  %10 = load ptr, ptr %data9, align 8
  %11 = load ptr, ptr %in.addr, align 8
  %length10 = getelementptr inbounds %struct.asn1_string_st, ptr %11, i32 0, i32 0
  %12 = load i32, ptr %length10, align 8
  %13 = load i32, ptr %mbflag, align 4
  %call = call i32 @ASN1_mbstring_copy(ptr noundef %str, ptr noundef %10, i32 noundef %12, i32 noundef %13, i64 noundef 8192)
  store i32 %call, ptr %ret, align 4
  %14 = load i32, ptr %ret, align 4
  %cmp11 = icmp slt i32 %14, 0
  br i1 %cmp11, label %if.then13, label %if.end14

if.then13:                                        ; preds = %if.end8
  %15 = load i32, ptr %ret, align 4
  store i32 %15, ptr %retval, align 4
  br label %return

if.end14:                                         ; preds = %if.end8
  %data15 = getelementptr inbounds %struct.asn1_string_st, ptr %stmp, i32 0, i32 2
  %16 = load ptr, ptr %data15, align 8
  %17 = load ptr, ptr %out.addr, align 8
  store ptr %16, ptr %17, align 8
  %length16 = getelementptr inbounds %struct.asn1_string_st, ptr %stmp, i32 0, i32 0
  %18 = load i32, ptr %length16, align 8
  store i32 %18, ptr %retval, align 4
  br label %return

return:                                           ; preds = %if.end14, %if.then13, %if.then7, %if.then3, %if.then
  %19 = load i32, ptr %retval, align 4
  ret i32 %19
}