; Function Attrs: nounwind uwtable
define hidden i32 @ASN1_STRING_to_UTF8(ptr noundef writeonly captures(none) %out, ptr noundef readonly %in) local_unnamed_addr #0 {
entry:
  %stmp = alloca %struct.asn1_string_st, align 8
  %str = alloca ptr, align 8
  store ptr %stmp, ptr %str, align 8
  %tobool.not = icmp eq ptr %in, null
  br i1 %tobool.not, label %return, label %if.end

if.end:                                           ; preds = %entry
  %type1 = getelementptr inbounds nuw i8, ptr %in, i64 4
  %0 = load i32, ptr %type1, align 4
  %or.cond = icmp ugt i32 %0, 30
  br i1 %or.cond, label %return, label %if.end4

if.end4:                                          ; preds = %if.end
  %idxprom = zext nneg i32 %0 to i64
  %1 = shl nuw nsw i64 1, %idxprom
  %2 = and i64 %1, 707260415
  %cmp5.not = icmp eq i64 %2, 0
  br i1 %cmp5.not, label %if.end8, label %return

if.end8:                                          ; preds = %if.end4
  %arrayidx = getelementptr inbounds nuw [31 x i8], ptr @tag2nbyte, i64 0, i64 %idxprom
  %3 = load i8, ptr %arrayidx, align 1
  %conv = sext i8 %3 to i32
  %or = or i32 %conv, 4096
  %data = getelementptr inbounds nuw i8, ptr %stmp, i64 8
  store i32 0, ptr %stmp, align 8
  %data9 = getelementptr inbounds nuw i8, ptr %in, i64 8
  call void @llvm.memset.p0.i64(ptr noundef nonnull align 8 dereferenceable(16) %data, i8 0, i64 16, i1 false)
  %4 = load ptr, ptr %data9, align 8
  %5 = load i32, ptr %in, align 8
  %call = call i32 @ASN1_mbstring_copy(ptr noundef nonnull %str, ptr noundef %4, i32 noundef %5, i32 noundef %or, i64 noundef 8192) #10
  %cmp11 = icmp slt i32 %call, 0
  br i1 %cmp11, label %return, label %if.end14

if.end14:                                         ; preds = %if.end8
  %6 = load ptr, ptr %data, align 8
  store ptr %6, ptr %out, align 8
  %7 = load i32, ptr %stmp, align 8
  br label %return

return:                                           ; preds = %if.end8, %if.end4, %if.end, %entry, %if.end14
  %retval.0 = phi i32 [ %7, %if.end14 ], [ -1, %entry ], [ -1, %if.end ], [ -1, %if.end4 ], [ %call, %if.end8 ]
  ret i32 %retval.0
}